target datalayout = "e-m:e-p270:32:32-p271:32:32-p272:64:64-i64:64-i128:128-f80:128-n8:16:32:64-S128"
target triple = "x86_64-pc-linux-gnu"

@hf_dvb_s2_table_desc_time_correct_flag = internal global i32 0, align 4
@hf_dvb_s2_table_desc_power_correct_flag = internal global i32 0, align 4
@hf_dvb_s2_table_desc_freq_correct_flag = internal global i32 0, align 4
@hf_dvb_s2_table_desc_slot_type = internal global i32 0, align 4
@hf_dvb_s2_table_desc_burst_time_scaling = internal global i32 0, align 4
@hf_dvb_s2_table_desc_burst_time_correct = internal global i32 0, align 4
@hf_dvb_s2_table_desc_power_ctrl_flag = internal global i32 0, align 4
@hf_dvb_s2_table_desc_power_correction = internal global i32 0, align 4
@hf_dvb_s2_table_desc_power_esn0 = internal global i32 0, align 4
@hf_dvb_s2_table_desc_freq_correction = internal global i32 0, align 4

; Function Attrs: null_pointer_is_valid sspstrong uwtable
define internal i32 @dissect_dvb_s2_table_correct_msg(ptr noundef %0, i32 noundef %1, ptr noundef %2) #0 {
  %4 = alloca ptr, align 8
  %5 = alloca i32, align 4
  %6 = alloca ptr, align 8
  %7 = alloca i32, align 4
  %8 = alloca i8, align 1
  %9 = alloca i8, align 1
  %10 = alloca i8, align 1
  %11 = alloca i8, align 1
  store ptr %0, ptr %4, align 8
  store i32 %1, ptr %5, align 4
  store ptr %2, ptr %6, align 8
  call void @llvm.lifetime.start.p0(i64 4, ptr %7) #4
  store i32 0, ptr %7, align 4
  call void @llvm.lifetime.start.p0(i64 1, ptr %8) #4
  call void @llvm.lifetime.start.p0(i64 1, ptr %9) #4
  call void @llvm.lifetime.start.p0(i64 1, ptr %10) #4
  call void @llvm.lifetime.start.p0(i64 1, ptr %11) #4
  %12 = load ptr, ptr %4, align 8
  %13 = load i32, ptr %5, align 4
  %14 = load i32, ptr %7, align 4
  %15 = add i32 %13, %14
  %16 = call zeroext i8 @tvb_get_uint8(ptr noundef %12, i32 noundef %15)
  %17 = zext i8 %16 to i32
  %18 = and i32 %17, 128
  %19 = trunc i32 %18 to i8
  store i8 %19, ptr %8, align 1
  %20 = load ptr, ptr %4, align 8
  %21 = load i32, ptr %5, align 4
  %22 = load i32, ptr %7, align 4
  %23 = add i32 %21, %22
  %24 = call zeroext i8 @tvb_get_uint8(ptr noundef %20, i32 noundef %23)
  %25 = zext i8 %24 to i32
  %26 = and i32 %25, 32
  %27 = trunc i32 %26 to i8
  store i8 %27, ptr %9, align 1
  %28 = load ptr, ptr %4, align 8
  %29 = load i32, ptr %5, align 4
  %30 = load i32, ptr %7, align 4
  %31 = add i32 %29, %30
  %32 = call zeroext i8 @tvb_get_uint8(ptr noundef %28, i32 noundef %31)
  %33 = zext i8 %32 to i32
  %34 = and i32 %33, 64
  %35 = trunc i32 %34 to i8
  store i8 %35, ptr %10, align 1
  %36 = load ptr, ptr %6, align 8
  %37 = load i32, ptr @hf_dvb_s2_table_desc_time_correct_flag, align 4
  %38 = load ptr, ptr %4, align 8
  %39 = load i32, ptr %5, align 4
  %40 = load i32, ptr %7, align 4
  %41 = add i32 %39, %40
  %42 = call ptr @proto_tree_add_item(ptr noundef %36, i32 noundef %37, ptr noundef %38, i32 noundef %41, i32 noundef 1, i32 noundef 0)
  %43 = load ptr, ptr %6, align 8
  %44 = load i32, ptr @hf_dvb_s2_table_desc_power_correct_flag, align 4
  %45 = load ptr, ptr %4, align 8
  %46 = load i32, ptr %5, align 4
  %47 = load i32, ptr %7, align 4
  %48 = add i32 %46, %47
  %49 = call ptr @proto_tree_add_item(ptr noundef %43, i32 noundef %44, ptr noundef %45, i32 noundef %48, i32 noundef 1, i32 noundef 0)
  %50 = load ptr, ptr %6, align 8
  %51 = load i32, ptr @hf_dvb_s2_table_desc_freq_correct_flag, align 4
  %52 = load ptr, ptr %4, align 8
  %53 = load i32, ptr %5, align 4
  %54 = load i32, ptr %7, align 4
  %55 = add i32 %53, %54
  %56 = call ptr @proto_tree_add_item(ptr noundef %50, i32 noundef %51, ptr noundef %52, i32 noundef %55, i32 noundef 1, i32 noundef 0)
  %57 = load ptr, ptr %6, align 8
  %58 = load i32, ptr @hf_dvb_s2_table_desc_slot_type, align 4
  %59 = load ptr, ptr %4, align 8
  %60 = load i32, ptr %5, align 4
  %61 = load i32, ptr %7, align 4
  %62 = add i32 %60, %61
  %63 = call ptr @proto_tree_add_item(ptr noundef %57, i32 noundef %58, ptr noundef %59, i32 noundef %62, i32 noundef 1, i32 noundef 0)
  %64 = load ptr, ptr %6, align 8
  %65 = load i32, ptr @hf_dvb_s2_table_desc_burst_time_scaling, align 4
  %66 = load ptr, ptr %4, align 8
  %67 = load i32, ptr %5, align 4
  %68 = load i32, ptr %7, align 4
  %69 = add i32 %67, %68
  %70 = call ptr @proto_tree_add_item(ptr noundef %64, i32 noundef %65, ptr noundef %66, i32 noundef %69, i32 noundef 1, i32 noundef 0)
  %71 = load i32, ptr %7, align 4
  %72 = add i32 %71, 1
  store i32 %72, ptr %7, align 4
  %73 = load i8, ptr %8, align 1
  %74 = icmp ne i8 %73, 0
  br i1 %74, label %75, label %85

75:                                               ; preds = %3
  %76 = load ptr, ptr %6, align 8
  %77 = load i32, ptr @hf_dvb_s2_table_desc_burst_time_correct, align 4
  %78 = load ptr, ptr %4, align 8
  %79 = load i32, ptr %5, align 4
  %80 = load i32, ptr %7, align 4
  %81 = add i32 %79, %80
  %82 = call ptr @proto_tree_add_item(ptr noundef %76, i32 noundef %77, ptr noundef %78, i32 noundef %81, i32 noundef 1, i32 noundef 0)
  %83 = load i32, ptr %7, align 4
  %84 = add i32 %83, 1
  store i32 %84, ptr %7, align 4
  br label %85

85:                                               ; preds = %75, %3
  %86 = load i8, ptr %10, align 1
  %87 = icmp ne i8 %86, 0
  br i1 %87, label %88, label %125

88:                                               ; preds = %85
  %89 = load ptr, ptr %4, align 8
  %90 = load i32, ptr %5, align 4
  %91 = load i32, ptr %7, align 4
  %92 = add i32 %90, %91
  %93 = call zeroext i8 @tvb_get_uint8(ptr noundef %89, i32 noundef %92)
  %94 = zext i8 %93 to i32
  %95 = and i32 %94, 128
  %96 = trunc i32 %95 to i8
  store i8 %96, ptr %11, align 1
  %97 = load ptr, ptr %6, align 8
  %98 = load i32, ptr @hf_dvb_s2_table_desc_power_ctrl_flag, align 4
  %99 = load ptr, ptr %4, align 8
  %100 = load i32, ptr %5, align 4
  %101 = load i32, ptr %7, align 4
  %102 = add i32 %100, %101
  %103 = call ptr @proto_tree_add_item(ptr noundef %97, i32 noundef %98, ptr noundef %99, i32 noundef %102, i32 noundef 1, i32 noundef 0)
  %104 = load i8, ptr %11, align 1
  %105 = icmp ne i8 %104, 0
  br i1 %105, label %106, label %114

106:                                              ; preds = %88
  %107 = load ptr, ptr %6, align 8
  %108 = load i32, ptr @hf_dvb_s2_table_desc_power_correction, align 4
  %109 = load ptr, ptr %4, align 8
  %110 = load i32, ptr %5, align 4
  %111 = load i32, ptr %7, align 4
  %112 = add i32 %110, %111
  %113 = call ptr @proto_tree_add_item(ptr noundef %107, i32 noundef %108, ptr noundef %109, i32 noundef %112, i32 noundef 1, i32 noundef 0)
  br label %122

114:                                              ; preds = %88
  %115 = load ptr, ptr %6, align 8
  %116 = load i32, ptr @hf_dvb_s2_table_desc_power_esn0, align 4
  %117 = load ptr, ptr %4, align 8
  %118 = load i32, ptr %5, align 4
  %119 = load i32, ptr %7, align 4
  %120 = add i32 %118, %119
  %121 = call ptr @proto_tree_add_item(ptr noundef %115, i32 noundef %116, ptr noundef %117, i32 noundef %120, i32 noundef 1, i32 noundef 0)
  br label %122

122:                                              ; preds = %114, %106
  %123 = load i32, ptr %7, align 4
  %124 = add i32 %123, 1
  store i32 %124, ptr %7, align 4
  br label %125

125:                                              ; preds = %122, %85
  %126 = load i8, ptr %9, align 1
  %127 = icmp ne i8 %126, 0
  br i1 %127, label %128, label %138

128:                                              ; preds = %125
  %129 = load ptr, ptr %6, align 8
  %130 = load i32, ptr @hf_dvb_s2_table_desc_freq_correction, align 4
  %131 = load ptr, ptr %4, align 8
  %132 = load i32, ptr %5, align 4
  %133 = load i32, ptr %7, align 4
  %134 = add i32 %132, %133
  %135 = call ptr @proto_tree_add_item(ptr noundef %129, i32 noundef %130, ptr noundef %131, i32 noundef %134, i32 noundef 2, i32 noundef 0)
  %136 = load i32, ptr %7, align 4
  %137 = add i32 %136, 2
  store i32 %137, ptr %7, align 4
  br label %138

138:                                              ; preds = %128, %125
  %139 = load i32, ptr %7, align 4
  call void @llvm.lifetime.end.p0(i64 1, ptr %11) #4
  call void @llvm.lifetime.end.p0(i64 1, ptr %10) #4
  call void @llvm.lifetime.end.p0(i64 1, ptr %9) #4
  call void @llvm.lifetime.end.p0(i64 1, ptr %8) #4
  call void @llvm.lifetime.end.p0(i64 4, ptr %7) #4
  ret i32 %139
}