; Function Attrs: null_pointer_is_valid sspstrong uwtable
define internal fastcc range(i32 1, 6) i32 @dissect_dvb_s2_table_correct_msg(ptr noundef %0, i32 noundef %1, ptr noundef %2) unnamed_addr #0 {
  %4 = tail call zeroext i8 @tvb_get_uint8(ptr noundef %0, i32 noundef %1)
  %5 = tail call zeroext i8 @tvb_get_uint8(ptr noundef %0, i32 noundef %1)
  %6 = and i8 %5, 32
  %7 = tail call zeroext i8 @tvb_get_uint8(ptr noundef %0, i32 noundef %1)
  %8 = and i8 %7, 64
  %9 = load i32, ptr @hf_dvb_s2_table_desc_time_correct_flag, align 4
  %10 = tail call ptr @proto_tree_add_item(ptr noundef %2, i32 noundef %9, ptr noundef %0, i32 noundef %1, i32 noundef 1, i32 noundef 0)
  %11 = load i32, ptr @hf_dvb_s2_table_desc_power_correct_flag, align 4
  %12 = tail call ptr @proto_tree_add_item(ptr noundef %2, i32 noundef %11, ptr noundef %0, i32 noundef %1, i32 noundef 1, i32 noundef 0)
  %13 = load i32, ptr @hf_dvb_s2_table_desc_freq_correct_flag, align 4
  %14 = tail call ptr @proto_tree_add_item(ptr noundef %2, i32 noundef %13, ptr noundef %0, i32 noundef %1, i32 noundef 1, i32 noundef 0)
  %15 = load i32, ptr @hf_dvb_s2_table_desc_slot_type, align 4
  %16 = tail call ptr @proto_tree_add_item(ptr noundef %2, i32 noundef %15, ptr noundef %0, i32 noundef %1, i32 noundef 1, i32 noundef 0)
  %17 = load i32, ptr @hf_dvb_s2_table_desc_burst_time_scaling, align 4
  %18 = tail call ptr @proto_tree_add_item(ptr noundef %2, i32 noundef %17, ptr noundef %0, i32 noundef %1, i32 noundef 1, i32 noundef 0)
  %.not = icmp sgt i8 %4, -1
  br i1 %.not, label %23, label %19

19:                                               ; preds = %3
  %20 = load i32, ptr @hf_dvb_s2_table_desc_burst_time_correct, align 4
  %21 = add i32 %1, 1
  %22 = tail call ptr @proto_tree_add_item(ptr noundef %2, i32 noundef %20, ptr noundef %0, i32 noundef %21, i32 noundef 1, i32 noundef 0)
  br label %23

23:                                               ; preds = %19, %3
  %.0 = phi i32 [ 2, %19 ], [ 1, %3 ]
  %.not60 = icmp eq i8 %8, 0
  br i1 %.not60, label %32, label %24

24:                                               ; preds = %23
  %25 = add i32 %.0, %1
  %26 = tail call zeroext i8 @tvb_get_uint8(ptr noundef %0, i32 noundef %25)
  %27 = load i32, ptr @hf_dvb_s2_table_desc_power_ctrl_flag, align 4
  %28 = tail call ptr @proto_tree_add_item(ptr noundef %2, i32 noundef %27, ptr noundef %0, i32 noundef %25, i32 noundef 1, i32 noundef 0)
  %hf_dvb_s2_table_desc_power_esn0.val = load i32, ptr @hf_dvb_s2_table_desc_power_esn0, align 4
  %hf_dvb_s2_table_desc_power_correction.val = load i32, ptr @hf_dvb_s2_table_desc_power_correction, align 4
  %.not6163 = icmp slt i8 %26, 0
  %29 = select i1 %.not6163, i32 %hf_dvb_s2_table_desc_power_correction.val, i32 %hf_dvb_s2_table_desc_power_esn0.val
  %30 = tail call ptr @proto_tree_add_item(ptr noundef %2, i32 noundef %29, ptr noundef %0, i32 noundef %25, i32 noundef 1, i32 noundef 0)
  %31 = add nuw nsw i32 %.0, 1
  br label %32

32:                                               ; preds = %24, %23
  %.1 = phi i32 [ %31, %24 ], [ %.0, %23 ]
  %.not62 = icmp eq i8 %6, 0
  br i1 %.not62, label %38, label %33

33:                                               ; preds = %32
  %34 = load i32, ptr @hf_dvb_s2_table_desc_freq_correction, align 4
  %35 = add i32 %.1, %1
  %36 = tail call ptr @proto_tree_add_item(ptr noundef %2, i32 noundef %34, ptr noundef %0, i32 noundef %35, i32 noundef 2, i32 noundef 0)
  %37 = add nuw nsw i32 %.1, 2
  br label %38

38:                                               ; preds = %33, %32
  %.2 = phi i32 [ %37, %33 ], [ %.1, %32 ]
  ret i32 %.2
}